target datalayout = "e-m:e-p270:32:32-p271:32:32-p272:64:64-i64:64-i128:128-f80:128-n8:16:32:64-S128"
target triple = "x86_64-pc-linux-gnu"

%struct.AVBufferRef = type { ptr, ptr, i64 }
%struct.AVFrame = type { [8 x ptr], [8 x i32], ptr, i32, i32, i32, i32, i32, %struct.AVRational, i64, i64, %struct.AVRational, i32, ptr, i32, i32, [8 x ptr], ptr, i32, ptr, i32, i32, i32, i32, i32, i32, i32, i64, ptr, i32, ptr, ptr, i64, i64, i64, i64, ptr, %struct.AVChannelLayout, i64 }
%struct.AVRational = type { i32, i32 }
%struct.AVChannelLayout = type { i32, i32, %union.anon, ptr }
%union.anon = type { i64 }
%struct.HWMapDescriptor = type { ptr, ptr, ptr, ptr }

; Function Attrs: nounwind uwtable
define i32 @ff_hwframe_map_create(ptr noundef %0, ptr noundef %1, ptr noundef %2, ptr noundef %3, ptr noundef %4) #0 {
  %6 = alloca i32, align 4
  %7 = alloca ptr, align 8
  %8 = alloca ptr, align 8
  %9 = alloca ptr, align 8
  %10 = alloca ptr, align 8
  %11 = alloca ptr, align 8
  %12 = alloca ptr, align 8
  %13 = alloca ptr, align 8
  %14 = alloca i32, align 4
  %15 = alloca i32, align 4
  store ptr %0, ptr %7, align 8, !tbaa !28
  store ptr %1, ptr %8, align 8, !tbaa !71
  store ptr %2, ptr %9, align 8, !tbaa !71
  store ptr %3, ptr %10, align 8, !tbaa !34
  store ptr %4, ptr %11, align 8, !tbaa !34
  call void @llvm.lifetime.start.p0(i64 8, ptr %12) #5
  %16 = load ptr, ptr %7, align 8, !tbaa !28
  %17 = getelementptr inbounds nuw %struct.AVBufferRef, ptr %16, i32 0, i32 1
  %18 = load ptr, ptr %17, align 8, !tbaa !37
  store ptr %18, ptr %12, align 8, !tbaa !43
  call void @llvm.lifetime.start.p0(i64 8, ptr %13) #5
  call void @llvm.lifetime.start.p0(i64 4, ptr %14) #5
  %19 = call noalias ptr @av_mallocz(i64 noundef 32)
  store ptr %19, ptr %13, align 8, !tbaa !95
  %20 = load ptr, ptr %13, align 8, !tbaa !95
  %21 = icmp ne ptr %20, null
  br i1 %21, label %23, label %22

22:                                               ; preds = %5
  store i32 -12, ptr %14, align 4, !tbaa !9
  br label %71

23:                                               ; preds = %5
  %24 = call ptr @av_frame_alloc()
  %25 = load ptr, ptr %13, align 8, !tbaa !95
  %26 = getelementptr inbounds nuw %struct.HWMapDescriptor, ptr %25, i32 0, i32 0
  store ptr %24, ptr %26, align 8, !tbaa !97
  %27 = load ptr, ptr %13, align 8, !tbaa !95
  %28 = getelementptr inbounds nuw %struct.HWMapDescriptor, ptr %27, i32 0, i32 0
  %29 = load ptr, ptr %28, align 8, !tbaa !97
  %30 = icmp ne ptr %29, null
  br i1 %30, label %32, label %31

31:                                               ; preds = %23
  store i32 -12, ptr %14, align 4, !tbaa !9
  br label %71

32:                                               ; preds = %23
  %33 = load ptr, ptr %13, align 8, !tbaa !95
  %34 = getelementptr inbounds nuw %struct.HWMapDescriptor, ptr %33, i32 0, i32 0
  %35 = load ptr, ptr %34, align 8, !tbaa !97
  %36 = load ptr, ptr %9, align 8, !tbaa !71
  %37 = call i32 @av_frame_ref(ptr noundef %35, ptr noundef %36)
  store i32 %37, ptr %14, align 4, !tbaa !9
  %38 = load i32, ptr %14, align 4, !tbaa !9
  %39 = icmp slt i32 %38, 0
  br i1 %39, label %40, label %41

40:                                               ; preds = %32
  br label %71

41:                                               ; preds = %32
  %42 = load ptr, ptr %7, align 8, !tbaa !28
  %43 = call ptr @av_buffer_ref(ptr noundef %42)
  %44 = load ptr, ptr %13, align 8, !tbaa !95
  %45 = getelementptr inbounds nuw %struct.HWMapDescriptor, ptr %44, i32 0, i32 1
  store ptr %43, ptr %45, align 8, !tbaa !120
  %46 = load ptr, ptr %13, align 8, !tbaa !95
  %47 = getelementptr inbounds nuw %struct.HWMapDescriptor, ptr %46, i32 0, i32 1
  %48 = load ptr, ptr %47, align 8, !tbaa !120
  %49 = icmp ne ptr %48, null
  br i1 %49, label %51, label %50

50:                                               ; preds = %41
  store i32 -12, ptr %14, align 4, !tbaa !9
  br label %71

51:                                               ; preds = %41
  %52 = load ptr, ptr %10, align 8, !tbaa !34
  %53 = load ptr, ptr %13, align 8, !tbaa !95
  %54 = getelementptr inbounds nuw %struct.HWMapDescriptor, ptr %53, i32 0, i32 2
  store ptr %52, ptr %54, align 8, !tbaa !121
  %55 = load ptr, ptr %11, align 8, !tbaa !34
  %56 = load ptr, ptr %13, align 8, !tbaa !95
  %57 = getelementptr inbounds nuw %struct.HWMapDescriptor, ptr %56, i32 0, i32 3
  store ptr %55, ptr %57, align 8, !tbaa !122
  %58 = load ptr, ptr %13, align 8, !tbaa !95
  %59 = load ptr, ptr %12, align 8, !tbaa !43
  %60 = call ptr @av_buffer_create(ptr noundef %58, i64 noundef 32, ptr noundef @ff_hwframe_unmap, ptr noundef %59, i32 noundef 0)
  %61 = load ptr, ptr %8, align 8, !tbaa !71
  %62 = getelementptr inbounds nuw %struct.AVFrame, ptr %61, i32 0, i32 16
  %63 = getelementptr inbounds [8 x ptr], ptr %62, i64 0, i64 0
  store ptr %60, ptr %63, align 8, !tbaa !28
  %64 = load ptr, ptr %8, align 8, !tbaa !71
  %65 = getelementptr inbounds nuw %struct.AVFrame, ptr %64, i32 0, i32 16
  %66 = getelementptr inbounds [8 x ptr], ptr %65, i64 0, i64 0
  %67 = load ptr, ptr %66, align 8, !tbaa !28
  %68 = icmp ne ptr %67, null
  br i1 %68, label %70, label %69

69:                                               ; preds = %51
  store i32 -12, ptr %14, align 4, !tbaa !9
  br label %71

70:                                               ; preds = %51
  store i32 0, ptr %6, align 4
  store i32 1, ptr %15, align 4
  br label %82

71:                                               ; preds = %69, %50, %40, %31, %22
  %72 = load ptr, ptr %13, align 8, !tbaa !95
  %73 = icmp ne ptr %72, null
  br i1 %73, label %74, label %79

74:                                               ; preds = %71
  %75 = load ptr, ptr %13, align 8, !tbaa !95
  %76 = getelementptr inbounds nuw %struct.HWMapDescriptor, ptr %75, i32 0, i32 1
  call void @av_buffer_unref(ptr noundef %76)
  %77 = load ptr, ptr %13, align 8, !tbaa !95
  %78 = getelementptr inbounds nuw %struct.HWMapDescriptor, ptr %77, i32 0, i32 0
  call void @av_frame_free(ptr noundef %78)
  br label %79

79:                                               ; preds = %74, %71
  %80 = load ptr, ptr %13, align 8, !tbaa !95
  call void @av_free(ptr noundef %80)
  %81 = load i32, ptr %14, align 4, !tbaa !9
  store i32 %81, ptr %6, align 4
  store i32 1, ptr %15, align 4
  br label %82

82:                                               ; preds = %79, %70
  call void @llvm.lifetime.end.p0(i64 4, ptr %14) #5
  call void @llvm.lifetime.end.p0(i64 8, ptr %13) #5
  call void @llvm.lifetime.end.p0(i64 8, ptr %12) #5
  %83 = load i32, ptr %6, align 4
  ret i32 %83
}