; Function Attrs: nounwind uwtable
define range(i32 -2147483648, 1) i32 @ff_hwframe_map_create(ptr noundef %0, ptr noundef writeonly captures(none) %1, ptr noundef %2, ptr noundef %3, ptr noundef %4) local_unnamed_addr #5 {
  %6 = getelementptr inbounds nuw i8, ptr %0, i64 8
  %7 = load ptr, ptr %6, align 8, !tbaa !32
  %8 = tail call noalias ptr @av_mallocz(i64 noundef 32) #11
  %.not = icmp eq ptr %8, null
  br i1 %.not, label %24, label %9

9:                                                ; preds = %5
  %10 = tail call ptr @av_frame_alloc() #11
  store ptr %10, ptr %8, align 8, !tbaa !90
  %.not27 = icmp eq ptr %10, null
  br i1 %.not27, label %22, label %11

11:                                               ; preds = %9
  %12 = tail call i32 @av_frame_ref(ptr noundef nonnull %10, ptr noundef %2) #11
  %13 = icmp slt i32 %12, 0
  br i1 %13, label %22, label %14

14:                                               ; preds = %11
  %15 = tail call ptr @av_buffer_ref(ptr noundef nonnull %0) #11
  %16 = getelementptr inbounds nuw i8, ptr %8, i64 8
  store ptr %15, ptr %16, align 8, !tbaa !109
  %.not28 = icmp eq ptr %15, null
  br i1 %.not28, label %22, label %17

17:                                               ; preds = %14
  %18 = getelementptr inbounds nuw i8, ptr %8, i64 16
  store ptr %3, ptr %18, align 8, !tbaa !110
  %19 = getelementptr inbounds nuw i8, ptr %8, i64 24
  store ptr %4, ptr %19, align 8, !tbaa !111
  %20 = tail call ptr @av_buffer_create(ptr noundef nonnull %8, i64 noundef 32, ptr noundef nonnull @ff_hwframe_unmap, ptr noundef %7, i32 noundef 0) #11
  %21 = getelementptr inbounds nuw i8, ptr %1, i64 184
  store ptr %20, ptr %21, align 8, !tbaa !36
  %.not29 = icmp eq ptr %20, null
  br i1 %.not29, label %22, label %25

22:                                               ; preds = %17, %14, %9, %11
  %.0.ph = phi i32 [ -12, %17 ], [ -12, %14 ], [ -12, %9 ], [ %12, %11 ]
  %23 = getelementptr inbounds nuw i8, ptr %8, i64 8
  tail call void @av_buffer_unref(ptr noundef nonnull %23) #11
  tail call void @av_frame_free(ptr noundef nonnull %8) #11
  br label %24

24:                                               ; preds = %5, %22
  %.032 = phi i32 [ %.0.ph, %22 ], [ -12, %5 ]
  tail call void @av_free(ptr noundef %8) #11
  br label %25

25:                                               ; preds = %17, %24
  %.023 = phi i32 [ %.032, %24 ], [ 0, %17 ]
  ret i32 %.023
}